Certificate:
    Data:
        Version: 3 (0x2)
        Serial Number: 1 (0x1)
    Signature Algorithm: sha256WithRSAEncryption
        Issuer: CN=devcert
        Validity
            Not Before: Apr 28 18:50:53 2020 GMT
            Not After : Aug  1 18:50:53 2022 GMT
        Subject: CN=localhost
        Subject Public Key Info:
            Public Key Algorithm: rsaEncryption
                Public-Key: (2048 bit)
                Modulus:
                    00:ce:6c:fc:29:3e:1f:eb:2c:59:a2:a2:74:d6:1f:
                    47:23:8b:df:e4:f9:50:e8:55:4b:fa:2a:ec:b1:74:
                    4f:0e:21:b4:9a:a8:95:f4:0f:8a:a6:97:cf:f7:0c:
                    51:1e:ae:e2:66:8a:a6:d7:68:1e:d9:ce:e1:c3:6c:
                    61:00:15:e8:ea:bc:3a:ad:29:31:94:8b:77:03:55:
                    4d:aa:8a:6c:90:5d:a4:02:82:a2:b9:d3:f7:6c:43:
                    59:c7:7a:d1:ca:4d:1f:cc:b1:2b:e0:7d:d3:7e:9e:
                    4e:7f:f6:a3:94:f6:8e:ce:6e:e2:2e:0b:76:ac:5f:
                    8c:af:51:59:8e:2d:26:18:bc:f1:97:20:cc:45:9f:
                    31:3d:3d:b8:79:34:b1:52:5f:c4:4f:87:80:16:93:
                    1c:0a:1d:5b:45:61:2c:eb:c1:0f:8f:30:d0:3c:1b:
                    ea:90:49:a9:7a:43:2b:d9:6c:c0:56:69:4a:58:e2:
                    17:58:e8:f4:a9:a6:91:79:fc:cc:77:23:7b:09:40:
                    87:8b:e8:37:db:c1:7c:7d:6b:ef:68:72:4f:f1:48:
                    b5:f7:22:2b:e2:a3:7c:16:35:01:12:db:77:89:e0:
                    5d:1b:8a:04:8d:5a:da:5e:56:5d:6d:9d:97:56:31:
                    b9:56:87:a8:4f:d2:b5:d8:88:47:d1:d3:31:81:9c:
                    ce:cf
                Exponent: 65537 (0x10001)
        X509v3 extensions:
            X509v3 Basic Constraints: critical
                CA:FALSE
            X509v3 Subject Key Identifier: 
                43:A3:CE:FD:35:EE:8B:E6:E8:C3:7C:48:F2:A6:D3:FF:AE:31:1C:B8
            X509v3 Authority Key Identifier: 
                keyid:61:0D:C3:AE:63:34:39:BF:B4:8C:D1:0D:6E:DA:0E:E3:E8:E8:C2:7F
                DirName:/CN=devcert
                serial:FD:35:BC:1C:5F:88:81:87

            X509v3 Key Usage: critical
                Digital Signature, Key Encipherment
            X509v3 Extended Key Usage: 
                TLS Web Server Authentication
            X509v3 Subject Alternative Name: 
                DNS:localhost, DNS:*.localhost
    Signature Algorithm: sha256WithRSAEncryption
         3e:a9:d7:3f:6d:31:13:d4:d7:9c:ba:3f:02:23:03:d2:95:8a:
         af:12:e0:ad:84:1e:d7:23:92:e4:2c:a2:f5:a1:81:cc:9c:e6:
         67:61:fe:5a:ad:83:80:0b:5b:c4:c7:6f:e5:78:15:3a:eb:15:
         08:c6:f6:4c:02:f0:0a:0d:c0:08:0c:72:b7:e0:ee:d8:26:e4:
         03:67:c1:a4:22:cd:32:ac:6f:21:d1:f7:3b:93:ef:73:78:ac:
         5b:b7:2d:b3:a2:2c:37:a1:98:3e:3e:9a:d0:a1:cf:fc:7b:a6:
         90:57:37:a1:ac:63:7a:90:c2:96:89:b0:73:99:96:3f:b0:18:
         1a:c4:58:16:2c:0f:e4:42:db:8d:e6:65:81:cb:d6:01:60:86:
         4f:90:4f:f9:5a:56:9f:ad:e7:0b:91:31:83:23:d0:4a:84:b4:
         4b:dc:27:66:5a:63:6f:5f:f9:4f:21:b9:85:ac:61:8c:1b:14:
         ec:68:d9:95:89:b4:9e:f7:c8:99:7b:1f:63:e1:e6:06:2f:c2:
         4d:29:1f:f8:57:62:4d:b0:3b:fa:d5:dc:40:2c:47:59:89:1c:
         7d:e0:29:ae:ca:2e:4c:e5:a5:35:8f:77:c1:80:5e:71:4a:64:
         87:b9:18:76:d9:f9:44:60:e1:fb:f9:f2:7a:79:8b:c0:05:c6:
         fa:eb:09:27
-----BEGIN CERTIFICATE-----
MIIDXjCCAkagAwIBAgIBATANBgkqhkiG9w0BAQsFADASMRAwDgYDVQQDDAdkZXZj
ZXJ0MB4XDTIwMDQyODE4NTA1M1oXDTIyMDgwMTE4NTA1M1owFDESMBAGA1UEAwwJ
bG9jYWxob3N0MIIBIjANBgkqhkiG9w0BAQEFAAOCAQ8AMIIBCgKCAQEAzmz8KT4f
6yxZoqJ01h9HI4vf5PlQ6FVL+irssXRPDiG0mqiV9A+KppfP9wxRHq7iZoqm12ge
2c7hw2xhABXo6rw6rSkxlIt3A1VNqopskF2kAoKiudP3bENZx3rRyk0fzLEr4H3T
fp5Of/ajlPaOzm7iLgt2rF+Mr1FZji0mGLzxlyDMRZ8xPT24eTSxUl/ET4eAFpMc
Ch1bRWEs68EPjzDQPBvqkEmpekMr2WzAVmlKWOIXWOj0qaaRefzMdyN7CUCHi+g3
28F8fWvvaHJP8Ui19yIr4qN8FjUBEtt3ieBdG4oEjVraXlZdbZ2XVjG5VoeoT9K1
2IhH0dMxgZzOzwIDAQABo4G8MIG5MAwGA1UdEwEB/wQCMAAwHQYDVR0OBBYEFEOj
zv017ovm6MN8SPKm0/+uMRy4MEIGA1UdIwQ7MDmAFGENw65jNDm/tIzRDW7aDuPo
6MJ/oRakFDASMRAwDgYDVQQDDAdkZXZjZXJ0ggkA/TW8HF+IgYcwDgYDVR0PAQH/
BAQDAgWgMBMGA1UdJQQMMAoGCCsGAQUFBwMBMCEGA1UdEQQaMBiCCWxvY2FsaG9z
dIILKi5sb2NhbGhvc3QwDQYJKoZIhvcNAQELBQADggEBAD6p1z9tMRPU15y6PwIj
A9KViq8S4K2EHtcjkuQsovWhgcyc5mdh/lqtg4ALW8THb+V4FTrrFQjG9kwC8AoN
wAgMcrfg7tgm5ANnwaQizTKsbyHR9zuT73N4rFu3LbOiLDehmD4+mtChz/x7ppBX
N6GsY3qQwpaJsHOZlj+wGBrEWBYsD+RC243mZYHL1gFghk+QT/laVp+t5wuRMYMj
0EqEtEvcJ2ZaY29f+U8huYWsYYwbFOxo2ZWJtJ73yJl7H2Ph5gYvwk0pH/hXYk2w
O/rV3EAsR1mJHH3gKa7KLkzlpTWPd8GAXnFKZIe5GHbZ+URg4fv58np5i8AFxvrr
CSc=
-----END CERTIFICATE-----
